target datalayout = "e-m:e-p270:32:32-p271:32:32-p272:64:64-i64:64-i128:128-f80:128-n8:16:32:64-S128"
target triple = "x86_64-unknown-linux-gnu"

%"class.OpenColorIO_v2_4dev::RangeOpData" = type <{ %"class.OpenColorIO_v2_4dev::OpData", double, double, double, double, double, double, i32, i32, i32, [4 x i8] }>
%"class.OpenColorIO_v2_4dev::OpData" = type { ptr, %"class.std::mutex", %"class.OpenColorIO_v2_4dev::FormatMetadataImpl" }
%"class.std::mutex" = type { %"class.std::__mutex_base" }
%"class.std::__mutex_base" = type { %union.pthread_mutex_t }
%union.pthread_mutex_t = type { %struct.__pthread_mutex_s }
%struct.__pthread_mutex_s = type { i32, i32, i32, i32, i32, i16, i16, %struct.__pthread_internal_list }
%struct.__pthread_internal_list = type { ptr, ptr }
%"class.OpenColorIO_v2_4dev::FormatMetadataImpl" = type { %"class.OpenColorIO_v2_4dev::FormatMetadata", %"class.std::__cxx11::basic_string", %"class.std::__cxx11::basic_string", %"class.std::vector", %"class.std::vector.3" }
%"class.OpenColorIO_v2_4dev::FormatMetadata" = type { ptr }
%"class.std::__cxx11::basic_string" = type { %"struct.std::__cxx11::basic_string<char>::_Alloc_hider", i64, %union.anon }
%"struct.std::__cxx11::basic_string<char>::_Alloc_hider" = type { ptr }
%union.anon = type { i64, [8 x i8] }
%"class.std::vector" = type { %"struct.std::_Vector_base" }
%"struct.std::_Vector_base" = type { %"struct.std::_Vector_base<std::pair<std::__cxx11::basic_string<char>, std::__cxx11::basic_string<char>>, std::allocator<std::pair<std::__cxx11::basic_string<char>, std::__cxx11::basic_string<char>>>>::_Vector_impl" }
%"struct.std::_Vector_base<std::pair<std::__cxx11::basic_string<char>, std::__cxx11::basic_string<char>>, std::allocator<std::pair<std::__cxx11::basic_string<char>, std::__cxx11::basic_string<char>>>>::_Vector_impl" = type { %"struct.std::_Vector_base<std::pair<std::__cxx11::basic_string<char>, std::__cxx11::basic_string<char>>, std::allocator<std::pair<std::__cxx11::basic_string<char>, std::__cxx11::basic_string<char>>>>::_Vector_impl_data" }
%"struct.std::_Vector_base<std::pair<std::__cxx11::basic_string<char>, std::__cxx11::basic_string<char>>, std::allocator<std::pair<std::__cxx11::basic_string<char>, std::__cxx11::basic_string<char>>>>::_Vector_impl_data" = type { ptr, ptr, ptr }
%"class.std::vector.3" = type { %"struct.std::_Vector_base.4" }
%"struct.std::_Vector_base.4" = type { %"struct.std::_Vector_base<OpenColorIO_v2_4dev::FormatMetadataImpl, std::allocator<OpenColorIO_v2_4dev::FormatMetadataImpl>>::_Vector_impl" }
%"struct.std::_Vector_base<OpenColorIO_v2_4dev::FormatMetadataImpl, std::allocator<OpenColorIO_v2_4dev::FormatMetadataImpl>>::_Vector_impl" = type { %"struct.std::_Vector_base<OpenColorIO_v2_4dev::FormatMetadataImpl, std::allocator<OpenColorIO_v2_4dev::FormatMetadataImpl>>::_Vector_impl_data" }
%"struct.std::_Vector_base<OpenColorIO_v2_4dev::FormatMetadataImpl, std::allocator<OpenColorIO_v2_4dev::FormatMetadataImpl>>::_Vector_impl_data" = type { ptr, ptr, ptr }

; Function Attrs: mustprogress nounwind uwtable
define linkonce_odr noundef zeroext i1 @_ZSt5isnanf(float noundef %__x) #5 comdat {
entry:
  %__x.addr = alloca float, align 4
  store float %__x, ptr %__x.addr, align 4
  %0 = load float, ptr %__x.addr, align 4
  %1 = call i1 @llvm.is.fpclass.f32(float %0, i32 3)
  ret i1 %1
}

; Function Attrs: mustprogress uwtable
define linkonce_odr hidden noundef zeroext i1 @_ZN19OpenColorIO_v2_4dev5IsNanIfEEbT_(float noundef %val) #4 comdat {
entry:
  %val.addr = alloca float, align 4
  store float %val, ptr %val.addr, align 4
  %0 = load float, ptr %val.addr, align 4
  %call = call noundef zeroext i1 @_ZSt5isnanf(float noundef %0)
  ret i1 %call
}

; Function Attrs: mustprogress nounwind uwtable
define hidden noundef zeroext i1 @_ZN19OpenColorIO_v2_4dev11RangeOpData12FloatsDifferEdd(double noundef %x1, double noundef %x2) #5 align 2 {
entry:
  %x1.addr = alloca double, align 8
  %x2.addr = alloca double, align 8
  %different = alloca i8, align 1
  store double %x1, ptr %x1.addr, align 8
  store double %x2, ptr %x2.addr, align 8
  store i8 0, ptr %different, align 1
  %0 = load double, ptr %x1.addr, align 8
  %1 = call double @llvm.fabs.f64(double %0)
  %cmp = fcmp olt double %1, 1.000000e-03
  br i1 %cmp, label %if.then, label %if.else

if.then:                                          ; preds = %entry
  %2 = load double, ptr %x1.addr, align 8
  %3 = load double, ptr %x2.addr, align 8
  %sub = fsub double %2, %3
  %4 = call double @llvm.fabs.f64(double %sub)
  %cmp1 = fcmp ogt double %4, 0x3EB0C6F7A0B5ED8D
  %frombool = zext i1 %cmp1 to i8
  store i8 %frombool, ptr %different, align 1
  br label %if.end

if.else:                                          ; preds = %entry
  %5 = load double, ptr %x2.addr, align 8
  %6 = load double, ptr %x1.addr, align 8
  %div = fdiv double %5, %6
  %sub2 = fsub double 1.000000e+00, %div
  %7 = call double @llvm.fabs.f64(double %sub2)
  %cmp3 = fcmp ogt double %7, 0x3EB0C6F7A0B5ED8D
  %frombool4 = zext i1 %cmp3 to i8
  store i8 %frombool4, ptr %different, align 1
  br label %if.end

if.end:                                           ; preds = %if.else, %if.then
  %8 = load i8, ptr %different, align 1
  %tobool = trunc i8 %8 to i1
  ret i1 %tobool
}

; Function Attrs: mustprogress uwtable
define hidden noundef zeroext i1 @_ZNK19OpenColorIO_v2_4dev11RangeOpData10maxIsEmptyEv(ptr noundef nonnull align 8 dereferenceable(228) %this) #4 align 2 {
entry:
  %this.addr = alloca ptr, align 8
  store ptr %this, ptr %this.addr, align 8
  %this1 = load ptr, ptr %this.addr, align 8
  %m_maxInValue = getelementptr inbounds %"class.OpenColorIO_v2_4dev::RangeOpData", ptr %this1, i32 0, i32 2
  %0 = load double, ptr %m_maxInValue, align 8
  %conv = fptrunc double %0 to float
  %call = call noundef zeroext i1 @_ZN19OpenColorIO_v2_4dev5IsNanIfEEbT_(float noundef %conv)
  %conv2 = zext i1 %call to i32
  %cmp = icmp ne i32 %conv2, 0
  ret i1 %cmp
}

; Function Attrs: mustprogress uwtable
define hidden noundef zeroext i1 @_ZNK19OpenColorIO_v2_4dev11RangeOpData10minIsEmptyEv(ptr noundef nonnull align 8 dereferenceable(228) %this) #4 align 2 {
entry:
  %this.addr = alloca ptr, align 8
  store ptr %this, ptr %this.addr, align 8
  %this1 = load ptr, ptr %this.addr, align 8
  %m_minInValue = getelementptr inbounds %"class.OpenColorIO_v2_4dev::RangeOpData", ptr %this1, i32 0, i32 1
  %0 = load double, ptr %m_minInValue, align 8
  %conv = fptrunc double %0 to float
  %call = call noundef zeroext i1 @_ZN19OpenColorIO_v2_4dev5IsNanIfEEbT_(float noundef %conv)
  %conv2 = zext i1 %call to i32
  %cmp = icmp ne i32 %conv2, 0
  ret i1 %cmp
}

; Function Attrs: mustprogress nounwind uwtable
define hidden noundef zeroext i1 @_ZNK19OpenColorIO_v2_4dev11RangeOpData6scalesEv(ptr noundef nonnull align 8 dereferenceable(228) %this) #5 align 2 {
entry:
  %retval = alloca i1, align 1
  %this.addr = alloca ptr, align 8
  store ptr %this, ptr %this.addr, align 8
  %this1 = load ptr, ptr %this.addr, align 8
  %m_offset = getelementptr inbounds %"class.OpenColorIO_v2_4dev::RangeOpData", ptr %this1, i32 0, i32 6
  %0 = load double, ptr %m_offset, align 8
  %1 = call double @llvm.fabs.f64(double %0)
  %cmp = fcmp ogt double %1, 0x3EB0C6F7A0B5ED8D
  br i1 %cmp, label %if.then, label %if.end

if.then:                                          ; preds = %entry
  store i1 true, ptr %retval, align 1
  br label %return

if.end:                                           ; preds = %entry
  %m_scale = getelementptr inbounds %"class.OpenColorIO_v2_4dev::RangeOpData", ptr %this1, i32 0, i32 5
  %2 = load double, ptr %m_scale, align 8
  %call = call noundef zeroext i1 @_ZN19OpenColorIO_v2_4dev11RangeOpData12FloatsDifferEdd(double noundef %2, double noundef 1.000000e+00)
  br i1 %call, label %if.then2, label %if.end3

if.then2:                                         ; preds = %if.end
  store i1 true, ptr %retval, align 1
  br label %return

if.end3:                                          ; preds = %if.end
  store i1 false, ptr %retval, align 1
  br label %return

return:                                           ; preds = %if.end3, %if.then2, %if.then
  %3 = load i1, ptr %retval, align 1
  ret i1 %3
}

; Function Attrs: mustprogress uwtable
define hidden noundef zeroext i1 @_ZNK19OpenColorIO_v2_4dev11RangeOpData10isIdentityEv(ptr noundef nonnull align 8 dereferenceable(228) %this) unnamed_addr #4 align 2 {
entry:
  %retval = alloca i1, align 1
  %this.addr = alloca ptr, align 8
  store ptr %this, ptr %this.addr, align 8
  %this1 = load ptr, ptr %this.addr, align 8
  %call = call noundef zeroext i1 @_ZNK19OpenColorIO_v2_4dev11RangeOpData6scalesEv(ptr noundef nonnull align 8 dereferenceable(228) %this1)
  br i1 %call, label %if.then, label %if.end

if.then:                                          ; preds = %entry
  store i1 false, ptr %retval, align 1
  br label %return

if.end:                                           ; preds = %entry
  %call2 = call noundef zeroext i1 @_ZNK19OpenColorIO_v2_4dev11RangeOpData10minIsEmptyEv(ptr noundef nonnull align 8 dereferenceable(228) %this1)
  br i1 %call2, label %if.end4, label %land.lhs.true

land.lhs.true:                                    ; preds = %if.end
  %m_minInValue = getelementptr inbounds %"class.OpenColorIO_v2_4dev::RangeOpData", ptr %this1, i32 0, i32 1
  %0 = load double, ptr %m_minInValue, align 8
  %cmp = fcmp ogt double %0, 0.000000e+00
  br i1 %cmp, label %if.then3, label %if.end4

if.then3:                                         ; preds = %land.lhs.true
  store i1 false, ptr %retval, align 1
  br label %return

if.end4:                                          ; preds = %land.lhs.true, %if.end
  %call5 = call noundef zeroext i1 @_ZNK19OpenColorIO_v2_4dev11RangeOpData10maxIsEmptyEv(ptr noundef nonnull align 8 dereferenceable(228) %this1)
  br i1 %call5, label %if.end9, label %land.lhs.true6

land.lhs.true6:                                   ; preds = %if.end4
  %m_maxInValue = getelementptr inbounds %"class.OpenColorIO_v2_4dev::RangeOpData", ptr %this1, i32 0, i32 2
  %1 = load double, ptr %m_maxInValue, align 8
  %cmp7 = fcmp olt double %1, 1.000000e+00
  br i1 %cmp7, label %if.then8, label %if.end9

if.then8:                                         ; preds = %land.lhs.true6
  store i1 false, ptr %retval, align 1
  br label %return

if.end9:                                          ; preds = %land.lhs.true6, %if.end4
  store i1 true, ptr %retval, align 1
  br label %return

return:                                           ; preds = %if.end9, %if.then8, %if.then3, %if.then
  %2 = load i1, ptr %retval, align 1
  ret i1 %2
}