; Function Attrs: mustprogress nofree norecurse nosync nounwind willreturn memory(argmem: read) uwtable
define hidden noundef zeroext i1 @_ZNK19OpenColorIO_v2_4dev11RangeOpData10isIdentityEv(ptr nocapture noundef nonnull readonly align 8 dereferenceable(228) %this) unnamed_addr #8 align 2 {
entry:
  %m_offset.i = getelementptr inbounds i8, ptr %this, i64 208
  %0 = load double, ptr %m_offset.i, align 8
  %1 = tail call double @llvm.fabs.f64(double %0)
  %cmp.i = fcmp ogt double %1, 0x3EB0C6F7A0B5ED8D
  br i1 %cmp.i, label %return, label %_ZNK19OpenColorIO_v2_4dev11RangeOpData6scalesEv.exit

_ZNK19OpenColorIO_v2_4dev11RangeOpData6scalesEv.exit: ; preds = %entry
  %m_scale.i = getelementptr inbounds i8, ptr %this, i64 200
  %2 = load double, ptr %m_scale.i, align 8
  %3 = tail call double @llvm.fabs.f64(double %2)
  %cmp.i.i = fcmp olt double %3, 1.000000e-03
  %div.i.i = fdiv double 1.000000e+00, %2
  %sub2.i.i = fsub double 1.000000e+00, %div.i.i
  %sub.i.i = fadd double %2, -1.000000e+00
  %sub2.sink.i.i = select i1 %cmp.i.i, double %sub.i.i, double %sub2.i.i
  %4 = tail call double @llvm.fabs.f64(double %sub2.sink.i.i)
  %different.0.in.i.i = fcmp ogt double %4, 0x3EB0C6F7A0B5ED8D
  br i1 %different.0.in.i.i, label %return, label %if.end

if.end:                                           ; preds = %_ZNK19OpenColorIO_v2_4dev11RangeOpData6scalesEv.exit
  %m_minInValue.i = getelementptr inbounds i8, ptr %this, i64 168
  %5 = load double, ptr %m_minInValue.i, align 8
  %conv.i = fptrunc double %5 to float
  %6 = fcmp ord float %conv.i, 0.000000e+00
  %cmp = fcmp ogt double %5, 0.000000e+00
  %or.cond = and i1 %cmp, %6
  br i1 %or.cond, label %return, label %if.end4

if.end4:                                          ; preds = %if.end
  %m_maxInValue.i = getelementptr inbounds i8, ptr %this, i64 176
  %7 = load double, ptr %m_maxInValue.i, align 8
  %conv.i2 = fptrunc double %7 to float
  %8 = fcmp uno float %conv.i2, 0.000000e+00
  %cmp7 = fcmp uge double %7, 1.000000e+00
  %or.cond1.not = or i1 %cmp7, %8
  br label %return

return:                                           ; preds = %entry, %if.end4, %if.end, %_ZNK19OpenColorIO_v2_4dev11RangeOpData6scalesEv.exit
  %retval.0 = phi i1 [ false, %_ZNK19OpenColorIO_v2_4dev11RangeOpData6scalesEv.exit ], [ false, %if.end ], [ %or.cond1.not, %if.end4 ], [ false, %entry ]
  ret i1 %retval.0
}